(ikeras_frcnn.config
Config
p0
(dp1
S'use_vertical_flips'
p2
I00
sS'verbose'
p3
I01
sS'classifier_regr_std'
p4
(lp5
F8.0
aF8.0
aF4.0
aF4.0
asS'classifier_min_overlap'
p6
F0.1
sS'rot_90'
p7
I00
sS'class_mapping'
p8
(dp9
S'gilet'
p10
I16
sS'giacca'
p11
I15
sS'abbigliamento'
p12
I19
sS'pantaloni'
p13
I4
sS'shorts'
p14
I11
sS'bg'
p15
I20
sS'vestito'
p16
I13
sS'jeans'
p17
I0
sS'gonna'
p18
I5
sS'mutande'
p19
I17
sS't-shirt'
p20
I10
sS'camicia'
p21
I9
sS'bermuda'
p22
I8
sS'maglione'
p23
I12
sS'canottiera'
p24
I2
sS'maglia'
p25
I3
sS'polo'
p26
I6
sS'fuseaux'
p27
I14
sS'reggiseno'
p28
I18
sS'giaccone'
p29
I7
sS'felpa'
p30
I1
ssS'use_horizontal_flips'
p31
I00
sS'rpn_max_overlap'
p32
F0.7
sS'network'
p33
S'resnet50'
p34
sS'img_channel_mean'
p35
(lp36
F103.939
aF116.779
aF123.68
asS'balanced_classes'
p37
I00
sS'anchor_box_ratios'
p38
(lp39
(lp40
I1
aI1
aa(lp41
I1
aI2
aa(lp42
I2
aI1
aasS'img_scaling_factor'
p43
F1.0
sS'rpn_stride'
p44
I16
sS'num_rois'
p45
I32
sS'base_net_weights'
p46
S'artelab.hdf5_epoch_0'
p47
sS'anchor_box_scales'
p48
(lp49
I128
aI256
aI512
asS'rpn_min_overlap'
p50
F0.3
sS'model_path'
p51
S'./artelab.hdf5'
p52
sS'classifier_max_overlap'
p53
F0.5
sS'std_scaling'
p54
F4.0
sS'im_size'
p55
I600
sb.