(ikeras_frcnn.config
Config
p0
(dp1
S'use_vertical_flips'
p2
I00
sS'verbose'
p3
I01
sS'classifier_regr_std'
p4
(lp5
F8.0
aF8.0
aF4.0
aF4.0
asS'classifier_min_overlap'
p6
F0.1
sS'rot_90'
p7
I00
sS'class_mapping'
p8
(dp9
S'Blouse'
p10
I25
sS'Lace_Dress'
p11
I32
sS'jeans'
p12
I0
sS'polo'
p13
I6
sS'maglia'
p14
I3
sS'camicia'
p15
I9
sS'mutande'
p16
I17
sS'Pants'
p17
I26
sS'giacca'
p18
I15
sS'Tank_Top'
p19
I21
sS'pantaloni'
p20
I4
sS'bermuda'
p21
I8
sS'Leggings'
p22
I28
sS'canottiera'
p23
I2
sS'Suspenders_Skirt'
p24
I30
sS'fuseaux'
p25
I14
sS'bg'
p26
I33
sS'felpa'
p27
I1
sS'shorts'
p28
I11
sS'Coat'
p29
I23
sS'gonna'
p30
I5
sS't-shirt'
p31
I10
sS'gilet'
p32
I16
sS'Sleeveless_Dress'
p33
I31
sS'reggiseno'
p34
I18
sS'giaccone'
p35
I7
sS'Lace_Shirt'
p36
I22
sS'Chiffon'
p37
I24
sS'vestito'
p38
I13
sS'Dress'
p39
I29
sS'abbigliamento'
p40
I19
sS'maglione'
p41
I12
sS'T_Shirt'
p42
I20
sS'Skirt'
p43
I27
ssS'use_horizontal_flips'
p44
I00
sS'rpn_max_overlap'
p45
F0.7
sS'network'
p46
S'resnet50'
p47
sS'img_channel_mean'
p48
(lp49
F103.939
aF116.779
aF123.68
asS'balanced_classes'
p50
I00
sS'anchor_box_ratios'
p51
(lp52
(lp53
I1
aI1
aa(lp54
I1
aI2
aa(lp55
I2
aI1
aasS'img_scaling_factor'
p56
F1.0
sS'rpn_stride'
p57
I16
sS'num_rois'
p58
I32
sS'base_net_weights'
p59
S'resnet50_weights_tf_dim_ordering_tf_kernels.h5'
p60
sS'anchor_box_scales'
p61
(lp62
I128
aI256
aI512
asS'rpn_min_overlap'
p63
F0.3
sS'model_path'
p64
S'./model_frcnn.hdf5'
p65
sS'classifier_max_overlap'
p66
F0.5
sS'std_scaling'
p67
F4.0
sS'im_size'
p68
I600
sb.